target datalayout = "e-m:e-p270:32:32-p271:32:32-p272:64:64-i64:64-i128:128-f80:128-n8:16:32:64-S128"
target triple = "x86_64-pc-linux-gnu"

; Function Attrs: nounwind uwtable
define internal i32 @zueci_u_lookup_uro(i32 noundef %0, ptr noundef %1, ptr noundef %2, ptr noundef %3, ptr noundef %4) #0 {
  %6 = alloca i32, align 4
  %7 = alloca i32, align 4
  %8 = alloca ptr, align 8
  %9 = alloca ptr, align 8
  %10 = alloca ptr, align 8
  %11 = alloca ptr, align 8
  %12 = alloca i32, align 4
  %13 = alloca i32, align 4
  %14 = alloca i16, align 2
  store i32 %0, ptr %7, align 4
  store ptr %1, ptr %8, align 8
  store ptr %2, ptr %9, align 8
  store ptr %3, ptr %10, align 8
  store ptr %4, ptr %11, align 8
  %15 = load i32, ptr %7, align 4
  %16 = sub i32 %15, 19968
  %17 = lshr i32 %16, 4
  store i32 %17, ptr %12, align 4
  %18 = load i32, ptr %7, align 4
  %19 = and i32 %18, 15
  %20 = shl i32 1, %19
  store i32 %20, ptr %13, align 4
  %21 = load ptr, ptr %8, align 8
  %22 = load i32, ptr %12, align 4
  %23 = zext i32 %22 to i64
  %24 = getelementptr inbounds i16, ptr %21, i64 %23
  %25 = load i16, ptr %24, align 2
  %26 = zext i16 %25 to i32
  %27 = load i32, ptr %13, align 4
  %28 = and i32 %26, %27
  %29 = icmp eq i32 %28, 0
  br i1 %29, label %30, label %31

30:                                               ; preds = %5
  store i32 0, ptr %6, align 4
  br label %81

31:                                               ; preds = %5
  %32 = load ptr, ptr %8, align 8
  %33 = load i32, ptr %12, align 4
  %34 = zext i32 %33 to i64
  %35 = getelementptr inbounds i16, ptr %32, i64 %34
  %36 = load i16, ptr %35, align 2
  %37 = zext i16 %36 to i32
  %38 = load i32, ptr %13, align 4
  %39 = sub i32 %38, 1
  %40 = and i32 %37, %39
  store i32 %40, ptr %13, align 4
  %41 = load i32, ptr %13, align 4
  %42 = load i32, ptr %13, align 4
  %43 = lshr i32 %42, 1
  %44 = and i32 %43, 1431655765
  %45 = sub i32 %41, %44
  store i32 %45, ptr %13, align 4
  %46 = load i32, ptr %13, align 4
  %47 = and i32 %46, 858993459
  %48 = load i32, ptr %13, align 4
  %49 = lshr i32 %48, 2
  %50 = and i32 %49, 858993459
  %51 = add i32 %47, %50
  store i32 %51, ptr %13, align 4
  %52 = load i32, ptr %13, align 4
  %53 = load i32, ptr %13, align 4
  %54 = lshr i32 %53, 4
  %55 = add i32 %52, %54
  %56 = and i32 %55, 252645135
  %57 = mul i32 %56, 16843009
  %58 = lshr i32 %57, 24
  store i32 %58, ptr %13, align 4
  %59 = load ptr, ptr %10, align 8
  %60 = load ptr, ptr %9, align 8
  %61 = load i32, ptr %12, align 4
  %62 = zext i32 %61 to i64
  %63 = getelementptr inbounds i16, ptr %60, i64 %62
  %64 = load i16, ptr %63, align 2
  %65 = zext i16 %64 to i32
  %66 = load i32, ptr %13, align 4
  %67 = add i32 %65, %66
  %68 = zext i32 %67 to i64
  %69 = getelementptr inbounds i16, ptr %59, i64 %68
  %70 = load i16, ptr %69, align 2
  store i16 %70, ptr %14, align 2
  %71 = load i16, ptr %14, align 2
  %72 = zext i16 %71 to i32
  %73 = ashr i32 %72, 8
  %74 = trunc i32 %73 to i8
  %75 = load ptr, ptr %11, align 8
  %76 = getelementptr inbounds i8, ptr %75, i64 0
  store i8 %74, ptr %76, align 1
  %77 = load i16, ptr %14, align 2
  %78 = trunc i16 %77 to i8
  %79 = load ptr, ptr %11, align 8
  %80 = getelementptr inbounds i8, ptr %79, i64 1
  store i8 %78, ptr %80, align 1
  store i32 2, ptr %6, align 4
  br label %81

81:                                               ; preds = %31, %30
  %82 = load i32, ptr %6, align 4
  ret i32 %82
}

; Function Attrs: nounwind uwtable
define internal i32 @zueci_u_ksx1001(i32 noundef %0, ptr noundef %1) #0 {
  %3 = alloca i32, align 4
  %4 = alloca i32, align 4
  %5 = alloca ptr, align 8
  %6 = alloca i32, align 4
  %7 = alloca i32, align 4
  %8 = alloca i32, align 4
  %9 = alloca i16, align 2
  store i32 %0, ptr %4, align 4
  store ptr %1, ptr %5, align 8
  %10 = load i32, ptr %4, align 4
  %11 = icmp ult i32 %10, 128
  br i1 %11, label %12, label %16

12:                                               ; preds = %2
  %13 = load i32, ptr %4, align 4
  %14 = trunc i32 %13 to i8
  %15 = load ptr, ptr %5, align 8
  store i8 %14, ptr %15, align 1
  store i32 1, ptr %3, align 4
  br label %117

16:                                               ; preds = %2
  %17 = load i32, ptr %4, align 4
  %18 = icmp uge i32 %17, 19968
  br i1 %18, label %19, label %30

19:                                               ; preds = %16
  %20 = load i32, ptr %4, align 4
  %21 = icmp ult i32 %20, 44032
  br i1 %21, label %22, label %30

22:                                               ; preds = %19
  %23 = load i32, ptr %4, align 4
  %24 = icmp uge i32 %23, 40864
  br i1 %24, label %25, label %26

25:                                               ; preds = %22
  store i32 0, ptr %3, align 4
  br label %117

26:                                               ; preds = %22
  %27 = load i32, ptr %4, align 4
  %28 = load ptr, ptr %5, align 8
  %29 = call i32 @zueci_u_lookup_uro(i32 noundef %27, ptr noundef @zueci_ksx1001_uro_u, ptr noundef @zueci_ksx1001_uro_mb_ind, ptr noundef @zueci_ksx1001_u_mb, ptr noundef %28)
  store i32 %29, ptr %3, align 4
  br label %117

30:                                               ; preds = %19, %16
  %31 = load i32, ptr %4, align 4
  %32 = load i16, ptr @zueci_ksx1001_u_u, align 16
  %33 = zext i16 %32 to i32
  %34 = icmp uge i32 %31, %33
  br i1 %34, label %35, label %116

35:                                               ; preds = %30
  %36 = load i32, ptr %4, align 4
  %37 = load i16, ptr getelementptr inbounds ([3607 x i16], ptr @zueci_ksx1001_u_u, i64 0, i64 3606), align 4
  %38 = zext i16 %37 to i32
  %39 = icmp ule i32 %36, %38
  br i1 %39, label %40, label %116

40:                                               ; preds = %35
  %41 = load i32, ptr %4, align 4
  %42 = load i16, ptr @zueci_ksx1001_u_u, align 16
  %43 = zext i16 %42 to i32
  %44 = sub i32 %41, %43
  %45 = lshr i32 %44, 8
  %46 = zext i32 %45 to i64
  %47 = getelementptr inbounds [256 x i16], ptr @zueci_ksx1001_u_ind, i64 0, i64 %46
  %48 = load i16, ptr %47, align 2
  %49 = zext i16 %48 to i32
  store i32 %49, ptr %6, align 4
  %50 = load i32, ptr %6, align 4
  %51 = add nsw i32 %50, 256
  %52 = icmp slt i32 %51, 3607
  br i1 %52, label %53, label %56

53:                                               ; preds = %40
  %54 = load i32, ptr %6, align 4
  %55 = add nsw i32 %54, 256
  br label %57

56:                                               ; preds = %40
  br label %57

57:                                               ; preds = %56, %53
  %58 = phi i32 [ %55, %53 ], [ 3607, %56 ]
  %59 = sub nsw i32 %58, 1
  store i32 %59, ptr %7, align 4
  br label %60

60:                                               ; preds = %114, %57
  %61 = load i32, ptr %6, align 4
  %62 = load i32, ptr %7, align 4
  %63 = icmp sle i32 %61, %62
  br i1 %63, label %64, label %115

64:                                               ; preds = %60
  %65 = load i32, ptr %6, align 4
  %66 = load i32, ptr %7, align 4
  %67 = add nsw i32 %65, %66
  %68 = ashr i32 %67, 1
  store i32 %68, ptr %8, align 4
  %69 = load i32, ptr %8, align 4
  %70 = sext i32 %69 to i64
  %71 = getelementptr inbounds [3607 x i16], ptr @zueci_ksx1001_u_u, i64 0, i64 %70
  %72 = load i16, ptr %71, align 2
  %73 = zext i16 %72 to i32
  %74 = load i32, ptr %4, align 4
  %75 = icmp ult i32 %73, %74
  br i1 %75, label %76, label %79

76:                                               ; preds = %64
  %77 = load i32, ptr %8, align 4
  %78 = add nsw i32 %77, 1
  store i32 %78, ptr %6, align 4
  br label %114

79:                                               ; preds = %64
  %80 = load i32, ptr %8, align 4
  %81 = sext i32 %80 to i64
  %82 = getelementptr inbounds [3607 x i16], ptr @zueci_ksx1001_u_u, i64 0, i64 %81
  %83 = load i16, ptr %82, align 2
  %84 = zext i16 %83 to i32
  %85 = load i32, ptr %4, align 4
  %86 = icmp ugt i32 %84, %85
  br i1 %86, label %87, label %90

87:                                               ; preds = %79
  %88 = load i32, ptr %8, align 4
  %89 = sub nsw i32 %88, 1
  store i32 %89, ptr %7, align 4
  br label %113

90:                                               ; preds = %79
  %91 = load i32, ptr %4, align 4
  %92 = icmp uge i32 %91, 19968
  br i1 %92, label %93, label %96

93:                                               ; preds = %90
  %94 = load i32, ptr %8, align 4
  %95 = add nsw i32 %94, 4620
  br label %98

96:                                               ; preds = %90
  %97 = load i32, ptr %8, align 4
  br label %98

98:                                               ; preds = %96, %93
  %99 = phi i32 [ %95, %93 ], [ %97, %96 ]
  %100 = sext i32 %99 to i64
  %101 = getelementptr inbounds [8227 x i16], ptr @zueci_ksx1001_u_mb, i64 0, i64 %100
  %102 = load i16, ptr %101, align 2
  store i16 %102, ptr %9, align 2
  %103 = load i16, ptr %9, align 2
  %104 = zext i16 %103 to i32
  %105 = ashr i32 %104, 8
  %106 = trunc i32 %105 to i8
  %107 = load ptr, ptr %5, align 8
  %108 = getelementptr inbounds i8, ptr %107, i64 0
  store i8 %106, ptr %108, align 1
  %109 = load i16, ptr %9, align 2
  %110 = trunc i16 %109 to i8
  %111 = load ptr, ptr %5, align 8
  %112 = getelementptr inbounds i8, ptr %111, i64 1
  store i8 %110, ptr %112, align 1
  store i32 2, ptr %3, align 4
  br label %117

113:                                              ; preds = %87
  br label %114

114:                                              ; preds = %113, %76
  br label %60, !llvm.loop !13

115:                                              ; preds = %60
  br label %116

116:                                              ; preds = %115, %35, %30
  store i32 0, ptr %3, align 4
  br label %117

117:                                              ; preds = %116, %98, %26, %25, %12
  %118 = load i32, ptr %3, align 4
  ret i32 %118
}