; Function Attrs: nofree norecurse nosync nounwind memory(argmem: write) uwtable
define internal noundef i32 @zueci_u_ksx1001(i32 noundef %0, ptr nocapture noundef writeonly %1) #1 {
  %3 = icmp ult i32 %0, 128
  br i1 %3, label %4, label %6

4:                                                ; preds = %2
  %5 = trunc nuw nsw i32 %0 to i8
  store i8 %5, ptr %1, align 1
  br label %zueci_u_lookup_uro.exit

6:                                                ; preds = %2
  %7 = icmp ugt i32 %0, 19967
  %8 = add i32 %0, -19968
  %or.cond = icmp ult i32 %8, 24064
  br i1 %or.cond, label %9, label %47

9:                                                ; preds = %6
  %10 = icmp ugt i32 %0, 40863
  br i1 %10, label %zueci_u_lookup_uro.exit, label %11

11:                                               ; preds = %9
  %12 = lshr i32 %8, 4
  %13 = and i32 %0, 15
  %14 = shl nuw nsw i32 1, %13
  %15 = zext nneg i32 %12 to i64
  %16 = getelementptr inbounds i16, ptr @zueci_ksx1001_uro_u, i64 %15
  %17 = load i16, ptr %16, align 2
  %18 = zext i16 %17 to i32
  %19 = and i32 %14, %18
  %20 = icmp eq i32 %19, 0
  br i1 %20, label %zueci_u_lookup_uro.exit, label %21

21:                                               ; preds = %11
  %22 = add nuw nsw i32 %14, 65535
  %23 = and i32 %22, %18
  %24 = lshr i32 %23, 1
  %25 = and i32 %24, 21845
  %26 = sub nsw i32 %23, %25
  %27 = and i32 %26, 858993459
  %28 = lshr i32 %26, 2
  %29 = and i32 %28, 858993459
  %30 = add nuw nsw i32 %29, %27
  %31 = lshr i32 %30, 4
  %32 = add nuw nsw i32 %31, %30
  %33 = and i32 %32, 252645135
  %34 = mul i32 %33, 16843009
  %35 = lshr i32 %34, 24
  %36 = getelementptr inbounds i16, ptr @zueci_ksx1001_uro_mb_ind, i64 %15
  %37 = load i16, ptr %36, align 2
  %38 = zext i16 %37 to i32
  %39 = add nuw nsw i32 %35, %38
  %40 = zext nneg i32 %39 to i64
  %41 = getelementptr inbounds i16, ptr @zueci_ksx1001_u_mb, i64 %40
  %42 = load i16, ptr %41, align 2
  %43 = lshr i16 %42, 8
  %44 = trunc nuw i16 %43 to i8
  store i8 %44, ptr %1, align 1
  %45 = trunc i16 %42 to i8
  %46 = getelementptr inbounds i8, ptr %1, i64 1
  store i8 %45, ptr %46, align 1
  br label %zueci_u_lookup_uro.exit

47:                                               ; preds = %6
  %48 = add i32 %0, -161
  %or.cond37 = icmp ult i32 %48, 65350
  br i1 %or.cond37, label %49, label %zueci_u_lookup_uro.exit

49:                                               ; preds = %47
  %50 = lshr i32 %48, 8
  %51 = zext nneg i32 %50 to i64
  %52 = getelementptr inbounds [256 x i16], ptr @zueci_ksx1001_u_ind, i64 0, i64 %51
  %53 = load i16, ptr %52, align 2
  %54 = zext i16 %53 to i32
  %55 = tail call i32 @llvm.umin.i32(i32 %54, i32 3351)
  %56 = add nuw nsw i32 %55, 255
  %.not38 = icmp ult i32 %56, %54
  br i1 %.not38, label %zueci_u_lookup_uro.exit, label %.lr.ph

.lr.ph:                                           ; preds = %49, %80
  %.03140 = phi i32 [ %.1, %80 ], [ %54, %49 ]
  %.03239 = phi i32 [ %.133, %80 ], [ %56, %49 ]
  %57 = add nsw i32 %.03140, %.03239
  %58 = ashr i32 %57, 1
  %59 = sext i32 %58 to i64
  %60 = getelementptr inbounds [3607 x i16], ptr @zueci_ksx1001_u_u, i64 0, i64 %59
  %61 = load i16, ptr %60, align 2
  %62 = zext i16 %61 to i32
  %63 = icmp ult i32 %62, %0
  br i1 %63, label %64, label %66

64:                                               ; preds = %.lr.ph
  %65 = add nsw i32 %58, 1
  br label %80

66:                                               ; preds = %.lr.ph
  %67 = icmp ugt i32 %62, %0
  br i1 %67, label %68, label %70

68:                                               ; preds = %66
  %69 = add nsw i32 %58, -1
  br label %80

70:                                               ; preds = %66
  %71 = add nsw i32 %58, 4620
  %72 = select i1 %7, i32 %71, i32 %58
  %73 = sext i32 %72 to i64
  %74 = getelementptr inbounds [8227 x i16], ptr @zueci_ksx1001_u_mb, i64 0, i64 %73
  %75 = load i16, ptr %74, align 2
  %76 = lshr i16 %75, 8
  %77 = trunc nuw i16 %76 to i8
  store i8 %77, ptr %1, align 1
  %78 = trunc i16 %75 to i8
  %79 = getelementptr inbounds i8, ptr %1, i64 1
  store i8 %78, ptr %79, align 1
  br label %zueci_u_lookup_uro.exit

80:                                               ; preds = %68, %64
  %.133 = phi i32 [ %.03239, %64 ], [ %69, %68 ]
  %.1 = phi i32 [ %65, %64 ], [ %.03140, %68 ]
  %.not = icmp sgt i32 %.1, %.133
  br i1 %.not, label %zueci_u_lookup_uro.exit, label %.lr.ph, !llvm.loop !14

zueci_u_lookup_uro.exit:                          ; preds = %80, %49, %21, %11, %47, %9, %70, %4
  %.0 = phi i32 [ 1, %4 ], [ 2, %70 ], [ 0, %9 ], [ 0, %47 ], [ 2, %21 ], [ 0, %11 ], [ 0, %49 ], [ 0, %80 ]
  ret i32 %.0
}